target datalayout = "e-m:e-p270:32:32-p271:32:32-p272:64:64-i64:64-f80:128-n8:16:32:64-S128"
target triple = "x86_64-pc-linux-gnu"

%struct.student = type { i32, i8, i8, i32, i32 }

@.str = private unnamed_addr constant [3 x i8] c"%d\00", align 1
@.str.1 = private unnamed_addr constant [7 x i8] c"%d%d%d\00", align 1
@.str.2 = private unnamed_addr constant [7 x i8] c"%d %d\0A\00", align 1

; Function Attrs: noinline nounwind uwtable
define dso_local i32 @main() #0 {
  %1 = alloca i32, align 4
  %2 = alloca [100000 x %struct.student], align 16
  %3 = alloca [2 x %struct.student], align 16
  %4 = alloca i32, align 4
  %5 = alloca i32, align 4
  %6 = alloca i32, align 4
  store i32 0, i32* %1, align 4
  %7 = call i32 (i8*, ...) @__isoc99_scanf(i8* getelementptr inbounds ([3 x i8], [3 x i8]* @.str, i64 0, i64 0), i32* %4)
  store i32 0, i32* %5, align 4
  br label %8

8:                                                ; preds = %26, %0
  %9 = load i32, i32* %5, align 4
  %10 = load i32, i32* %4, align 4
  %11 = icmp slt i32 %9, %10
  br i1 %11, label %12, label %29

12:                                               ; preds = %8
  %13 = load i32, i32* %5, align 4
  %14 = sext i32 %13 to i64
  %15 = getelementptr inbounds [100000 x %struct.student], [100000 x %struct.student]* %2, i64 0, i64 %14
  %16 = getelementptr inbounds %struct.student, %struct.student* %15, i32 0, i32 0
  %17 = load i32, i32* %5, align 4
  %18 = sext i32 %17 to i64
  %19 = getelementptr inbounds [100000 x %struct.student], [100000 x %struct.student]* %2, i64 0, i64 %18
  %20 = getelementptr inbounds %struct.student, %struct.student* %19, i32 0, i32 1
  %21 = load i32, i32* %5, align 4
  %22 = sext i32 %21 to i64
  %23 = getelementptr inbounds [100000 x %struct.student], [100000 x %struct.student]* %2, i64 0, i64 %22
  %24 = getelementptr inbounds %struct.student, %struct.student* %23, i32 0, i32 2
  %25 = call i32 (i8*, ...) @__isoc99_scanf(i8* getelementptr inbounds ([7 x i8], [7 x i8]* @.str.1, i64 0, i64 0), i32* %16, i8* %20, i8* %24)
  br label %26

26:                                               ; preds = %12
  %27 = load i32, i32* %5, align 4
  %28 = add nsw i32 %27, 1
  store i32 %28, i32* %5, align 4
  br label %8

29:                                               ; preds = %8
  store i32 0, i32* %5, align 4
  br label %30

30:                                               ; preds = %52, %29
  %31 = load i32, i32* %5, align 4
  %32 = load i32, i32* %4, align 4
  %33 = icmp slt i32 %31, %32
  br i1 %33, label %34, label %55

34:                                               ; preds = %30
  %35 = load i32, i32* %5, align 4
  %36 = sext i32 %35 to i64
  %37 = getelementptr inbounds [100000 x %struct.student], [100000 x %struct.student]* %2, i64 0, i64 %36
  %38 = getelementptr inbounds %struct.student, %struct.student* %37, i32 0, i32 1
  %39 = load i8, i8* %38, align 4
  %40 = sext i8 %39 to i32
  %41 = load i32, i32* %5, align 4
  %42 = sext i32 %41 to i64
  %43 = getelementptr inbounds [100000 x %struct.student], [100000 x %struct.student]* %2, i64 0, i64 %42
  %44 = getelementptr inbounds %struct.student, %struct.student* %43, i32 0, i32 2
  %45 = load i8, i8* %44, align 1
  %46 = sext i8 %45 to i32
  %47 = add nsw i32 %40, %46
  %48 = load i32, i32* %5, align 4
  %49 = sext i32 %48 to i64
  %50 = getelementptr inbounds [100000 x %struct.student], [100000 x %struct.student]* %2, i64 0, i64 %49
  %51 = getelementptr inbounds %struct.student, %struct.student* %50, i32 0, i32 3
  store i32 %47, i32* %51, align 8
  br label %52

52:                                               ; preds = %34
  %53 = load i32, i32* %5, align 4
  %54 = add nsw i32 %53, 1
  store i32 %54, i32* %5, align 4
  br label %30

55:                                               ; preds = %30
  store i32 0, i32* %6, align 4
  store i32 0, i32* %5, align 4
  br label %56

56:                                               ; preds = %81, %55
  %57 = load i32, i32* %5, align 4
  %58 = load i32, i32* %4, align 4
  %59 = icmp slt i32 %57, %58
  br i1 %59, label %60, label %84

60:                                               ; preds = %56
  %61 = load i32, i32* %5, align 4
  %62 = sext i32 %61 to i64
  %63 = getelementptr inbounds [100000 x %struct.student], [100000 x %struct.student]* %2, i64 0, i64 %62
  %64 = getelementptr inbounds %struct.student, %struct.student* %63, i32 0, i32 3
  %65 = load i32, i32* %64, align 8
  %66 = load i32, i32* %6, align 4
  %67 = icmp sgt i32 %65, %66
  br i1 %67, label %68, label %80

68:                                               ; preds = %60
  %69 = load i32, i32* %5, align 4
  %70 = sext i32 %69 to i64
  %71 = getelementptr inbounds [100000 x %struct.student], [100000 x %struct.student]* %2, i64 0, i64 %70
  %72 = getelementptr inbounds %struct.student, %struct.student* %71, i32 0, i32 3
  %73 = load i32, i32* %72, align 8
  store i32 %73, i32* %6, align 4
  %74 = getelementptr inbounds [2 x %struct.student], [2 x %struct.student]* %3, i64 0, i64 0
  %75 = load i32, i32* %5, align 4
  %76 = sext i32 %75 to i64
  %77 = getelementptr inbounds [100000 x %struct.student], [100000 x %struct.student]* %2, i64 0, i64 %76
  %78 = bitcast %struct.student* %74 to i8*
  %79 = bitcast %struct.student* %77 to i8*
  call void @llvm.memcpy.p0i8.p0i8.i64(i8* align 16 %78, i8* align 16 %79, i64 16, i1 false)
  br label %80

80:                                               ; preds = %68, %60
  br label %81

81:                                               ; preds = %80
  %82 = load i32, i32* %5, align 4
  %83 = add nsw i32 %82, 1
  store i32 %83, i32* %5, align 4
  br label %56

84:                                               ; preds = %56
  %85 = getelementptr inbounds [2 x %struct.student], [2 x %struct.student]* %3, i64 0, i64 0
  %86 = getelementptr inbounds %struct.student, %struct.student* %85, i32 0, i32 0
  %87 = load i32, i32* %86, align 16
  %88 = getelementptr inbounds [2 x %struct.student], [2 x %struct.student]* %3, i64 0, i64 0
  %89 = getelementptr inbounds %struct.student, %struct.student* %88, i32 0, i32 3
  %90 = load i32, i32* %89, align 8
  %91 = call i32 (i8*, ...) @printf(i8* getelementptr inbounds ([7 x i8], [7 x i8]* @.str.2, i64 0, i64 0), i32 %87, i32 %90)
  store i32 0, i32* %6, align 4
  store i32 0, i32* %5, align 4
  br label %92

92:                                               ; preds = %127, %84
  %93 = load i32, i32* %5, align 4
  %94 = load i32, i32* %4, align 4
  %95 = icmp slt i32 %93, %94
  br i1 %95, label %96, label %130

96:                                               ; preds = %92
  %97 = load i32, i32* %5, align 4
  %98 = sext i32 %97 to i64
  %99 = getelementptr inbounds [100000 x %struct.student], [100000 x %struct.student]* %2, i64 0, i64 %98
  %100 = getelementptr inbounds %struct.student, %struct.student* %99, i32 0, i32 3
  %101 = load i32, i32* %100, align 8
  %102 = load i32, i32* %6, align 4
  %103 = icmp sgt i32 %101, %102
  br i1 %103, label %104, label %126

104:                                              ; preds = %96
  %105 = load i32, i32* %5, align 4
  %106 = sext i32 %105 to i64
  %107 = getelementptr inbounds [100000 x %struct.student], [100000 x %struct.student]* %2, i64 0, i64 %106
  %108 = getelementptr inbounds %struct.student, %struct.student* %107, i32 0, i32 0
  %109 = load i32, i32* %108, align 16
  %110 = getelementptr inbounds [2 x %struct.student], [2 x %struct.student]* %3, i64 0, i64 0
  %111 = getelementptr inbounds %struct.student, %struct.student* %110, i32 0, i32 0
  %112 = load i32, i32* %111, align 16
  %113 = icmp ne i32 %109, %112
  br i1 %113, label %114, label %126

114:                                              ; preds = %104
  %115 = load i32, i32* %5, align 4
  %116 = sext i32 %115 to i64
  %117 = getelementptr inbounds [100000 x %struct.student], [100000 x %struct.student]* %2, i64 0, i64 %116
  %118 = getelementptr inbounds %struct.student, %struct.student* %117, i32 0, i32 3
  %119 = load i32, i32* %118, align 8
  store i32 %119, i32* %6, align 4
  %120 = getelementptr inbounds [2 x %struct.student], [2 x %struct.student]* %3, i64 0, i64 1
  %121 = load i32, i32* %5, align 4
  %122 = sext i32 %121 to i64
  %123 = getelementptr inbounds [100000 x %struct.student], [100000 x %struct.student]* %2, i64 0, i64 %122
  %124 = bitcast %struct.student* %120 to i8*
  %125 = bitcast %struct.student* %123 to i8*
  call void @llvm.memcpy.p0i8.p0i8.i64(i8* align 16 %124, i8* align 16 %125, i64 16, i1 false)
  br label %126

126:                                              ; preds = %114, %104, %96
  br label %127

127:                                              ; preds = %126
  %128 = load i32, i32* %5, align 4
  %129 = add nsw i32 %128, 1
  store i32 %129, i32* %5, align 4
  br label %92

130:                                              ; preds = %92
  %131 = getelementptr inbounds [2 x %struct.student], [2 x %struct.student]* %3, i64 0, i64 1
  %132 = getelementptr inbounds %struct.student, %struct.student* %131, i32 0, i32 0
  %133 = load i32, i32* %132, align 16
  %134 = getelementptr inbounds [2 x %struct.student], [2 x %struct.student]* %3, i64 0, i64 1
  %135 = getelementptr inbounds %struct.student, %struct.student* %134, i32 0, i32 3
  %136 = load i32, i32* %135, align 8
  %137 = call i32 (i8*, ...) @printf(i8* getelementptr inbounds ([7 x i8], [7 x i8]* @.str.2, i64 0, i64 0), i32 %133, i32 %136)
  store i32 0, i32* %6, align 4
  store i32 0, i32* %5, align 4
  br label %138

138:                                              ; preds = %183, %130
  %139 = load i32, i32* %5, align 4
  %140 = load i32, i32* %4, align 4
  %141 = icmp slt i32 %139, %140
  br i1 %141, label %142, label %186

142:                                              ; preds = %138
  %143 = load i32, i32* %5, align 4
  %144 = sext i32 %143 to i64
  %145 = getelementptr inbounds [100000 x %struct.student], [100000 x %struct.student]* %2, i64 0, i64 %144
  %146 = getelementptr inbounds %struct.student, %struct.student* %145, i32 0, i32 3
  %147 = load i32, i32* %146, align 8
  %148 = load i32, i32* %6, align 4
  %149 = icmp sgt i32 %147, %148
  br i1 %149, label %150, label %182

150:                                              ; preds = %142
  %151 = load i32, i32* %5, align 4
  %152 = sext i32 %151 to i64
  %153 = getelementptr inbounds [100000 x %struct.student], [100000 x %struct.student]* %2, i64 0, i64 %152
  %154 = getelementptr inbounds %struct.student, %struct.student* %153, i32 0, i32 0
  %155 = load i32, i32* %154, align 16
  %156 = getelementptr inbounds [2 x %struct.student], [2 x %struct.student]* %3, i64 0, i64 0
  %157 = getelementptr inbounds %struct.student, %struct.student* %156, i32 0, i32 0
  %158 = load i32, i32* %157, align 16
  %159 = icmp ne i32 %155, %158
  br i1 %159, label %160, label %182

160:                                              ; preds = %150
  %161 = load i32, i32* %5, align 4
  %162 = sext i32 %161 to i64
  %163 = getelementptr inbounds [100000 x %struct.student], [100000 x %struct.student]* %2, i64 0, i64 %162
  %164 = getelementptr inbounds %struct.student, %struct.student* %163, i32 0, i32 0
  %165 = load i32, i32* %164, align 16
  %166 = getelementptr inbounds [2 x %struct.student], [2 x %struct.student]* %3, i64 0, i64 1
  %167 = getelementptr inbounds %struct.student, %struct.student* %166, i32 0, i32 0
  %168 = load i32, i32* %167, align 16
  %169 = icmp ne i32 %165, %168
  br i1 %169, label %170, label %182

170:                                              ; preds = %160
  %171 = load i32, i32* %5, align 4
  %172 = sext i32 %171 to i64
  %173 = getelementptr inbounds [100000 x %struct.student], [100000 x %struct.student]* %2, i64 0, i64 %172
  %174 = getelementptr inbounds %struct.student, %struct.student* %173, i32 0, i32 3
  %175 = load i32, i32* %174, align 8
  store i32 %175, i32* %6, align 4
  %176 = getelementptr inbounds [2 x %struct.student], [2 x %struct.student]* %3, i64 0, i64 2
  %177 = load i32, i32* %5, align 4
  %178 = sext i32 %177 to i64
  %179 = getelementptr inbounds [100000 x %struct.student], [100000 x %struct.student]* %2, i64 0, i64 %178
  %180 = bitcast %struct.student* %176 to i8*
  %181 = bitcast %struct.student* %179 to i8*
  call void @llvm.memcpy.p0i8.p0i8.i64(i8* align 16 %180, i8* align 16 %181, i64 16, i1 false)
  br label %182

182:                                              ; preds = %170, %160, %150, %142
  br label %183

183:                                              ; preds = %182
  %184 = load i32, i32* %5, align 4
  %185 = add nsw i32 %184, 1
  store i32 %185, i32* %5, align 4
  br label %138

186:                                              ; preds = %138
  %187 = getelementptr inbounds [2 x %struct.student], [2 x %struct.student]* %3, i64 0, i64 2
  %188 = getelementptr inbounds %struct.student, %struct.student* %187, i32 0, i32 0
  %189 = load i32, i32* %188, align 16
  %190 = getelementptr inbounds [2 x %struct.student], [2 x %struct.student]* %3, i64 0, i64 2
  %191 = getelementptr inbounds %struct.student, %struct.student* %190, i32 0, i32 3
  %192 = load i32, i32* %191, align 8
  %193 = call i32 (i8*, ...) @printf(i8* getelementptr inbounds ([7 x i8], [7 x i8]* @.str.2, i64 0, i64 0), i32 %189, i32 %192)
  %194 = load i32, i32* %1, align 4
  ret i32 %194
}